target datalayout = "e-m:e-p270:32:32-p271:32:32-p272:64:64-i64:64-i128:128-f80:128-n8:16:32:64-S128"
target triple = "x86_64-pc-linux-gnu"

%struct.Lpk_Man_t_ = type { ptr, ptr, ptr, i32, i32, i32, i32, [10000 x %struct.Lpk_Cut_t_], [10000 x i32], ptr, ptr, ptr, ptr, i32, i32, i32, [100 x i32], [100 x i32], ptr, ptr, ptr, ptr, ptr, ptr, ptr, [32 x i32], [5 x [16 x ptr]], [8 x ptr], ptr, i32, i32, i32, i32, i32, i32, i32, i32, i32, i32, i32, i32, i32, [17 x i32], i64, i64, i64, i64, i64, i64, i64, i64, i64, i64, i64, i64, i64 }
%struct.Lpk_Cut_t_ = type { i32, [2 x i32], float, i32, [100 x i32], [100 x i32] }
%struct.Vec_Ptr_t_ = type { i32, i32, ptr }
%struct.Vec_Int_t_ = type { i32, i32, ptr }
%struct.If_Man_t_ = type { ptr, ptr, ptr, ptr, ptr, ptr, ptr, ptr, [5 x i32], i32, float, float, float, float, i32, float, i32, i32, [4 x ptr], ptr, i32, i32, i32, ptr, [3 x [32 x i32]], i32, i32, i32, ptr, ptr, ptr, ptr, ptr, ptr, ptr, i32, i32, i32, [16 x i32], i32, i32, i32, i32, ptr, ptr, ptr, ptr, ptr, i32, i32, [32 x i32], [32 x i32], i32, i32, i32, i32, ptr, [16 x ptr], [16 x ptr], [16 x ptr], [16 x ptr], [16 x ptr], [16 x ptr], [16 x ptr], ptr, ptr, ptr, ptr, [32 x i8], i32, i32, i32, [6 x i64], [2 x i32], [2 x i32], ptr, [15 x i32], ptr, ptr, ptr, [16 x i32], ptr, ptr, ptr, ptr, [2 x i32], [2 x i32], [2 x ptr], ptr }
%struct.Vec_Vec_t_ = type { i32, i32, ptr }

; Function Attrs: inlinehint nounwind uwtable
define internal ptr @Vec_VecEntry(ptr noundef %0, i32 noundef %1) #4 {
  %3 = alloca ptr, align 8
  %4 = alloca i32, align 4
  store ptr %0, ptr %3, align 8, !tbaa !76
  store i32 %1, ptr %4, align 4, !tbaa !29
  %5 = load ptr, ptr %3, align 8, !tbaa !76
  %6 = getelementptr inbounds nuw %struct.Vec_Vec_t_, ptr %5, i32 0, i32 2
  %7 = load ptr, ptr %6, align 8, !tbaa !80
  %8 = load i32, ptr %4, align 4, !tbaa !29
  %9 = sext i32 %8 to i64
  %10 = getelementptr inbounds ptr, ptr %7, i64 %9
  %11 = load ptr, ptr %10, align 8, !tbaa !46
  ret ptr %11
}

; Function Attrs: inlinehint nounwind uwtable
define internal i32 @Vec_VecSize(ptr noundef %0) #4 {
  %2 = alloca ptr, align 8
  store ptr %0, ptr %2, align 8, !tbaa !76
  %3 = load ptr, ptr %2, align 8, !tbaa !76
  %4 = getelementptr inbounds nuw %struct.Vec_Vec_t_, ptr %3, i32 0, i32 1
  %5 = load i32, ptr %4, align 4, !tbaa !78
  ret i32 %5
}

; Function Attrs: inlinehint nounwind uwtable
define internal void @Vec_PtrFree(ptr noundef %0) #4 {
  %2 = alloca ptr, align 8
  store ptr %0, ptr %2, align 8, !tbaa !43
  %3 = load ptr, ptr %2, align 8, !tbaa !43
  %4 = getelementptr inbounds nuw %struct.Vec_Ptr_t_, ptr %3, i32 0, i32 2
  %5 = load ptr, ptr %4, align 8, !tbaa !44
  %6 = icmp ne ptr %5, null
  br i1 %6, label %7, label %13

7:                                                ; preds = %1
  %8 = load ptr, ptr %2, align 8, !tbaa !43
  %9 = getelementptr inbounds nuw %struct.Vec_Ptr_t_, ptr %8, i32 0, i32 2
  %10 = load ptr, ptr %9, align 8, !tbaa !44
  call void @free(ptr noundef %10) #8
  %11 = load ptr, ptr %2, align 8, !tbaa !43
  %12 = getelementptr inbounds nuw %struct.Vec_Ptr_t_, ptr %11, i32 0, i32 2
  store ptr null, ptr %12, align 8, !tbaa !44
  br label %14

13:                                               ; preds = %1
  br label %14

14:                                               ; preds = %13, %7
  %15 = load ptr, ptr %2, align 8, !tbaa !43
  %16 = icmp ne ptr %15, null
  br i1 %16, label %17, label %19

17:                                               ; preds = %14
  %18 = load ptr, ptr %2, align 8, !tbaa !43
  call void @free(ptr noundef %18) #8
  store ptr null, ptr %2, align 8, !tbaa !43
  br label %20

19:                                               ; preds = %14
  br label %20

20:                                               ; preds = %19, %17
  ret void
}

; Function Attrs: inlinehint nounwind uwtable
define internal void @Vec_VecFree(ptr noundef %0) #4 {
  %2 = alloca ptr, align 8
  %3 = alloca ptr, align 8
  %4 = alloca i32, align 4
  store ptr %0, ptr %2, align 8, !tbaa !76
  call void @llvm.lifetime.start.p0(i64 8, ptr %3) #8
  call void @llvm.lifetime.start.p0(i64 4, ptr %4) #8
  store i32 0, ptr %4, align 4, !tbaa !29
  br label %5

5:                                                ; preds = %22, %1
  %6 = load i32, ptr %4, align 4, !tbaa !29
  %7 = load ptr, ptr %2, align 8, !tbaa !76
  %8 = call i32 @Vec_VecSize(ptr noundef %7)
  %9 = icmp slt i32 %6, %8
  br i1 %9, label %10, label %14

10:                                               ; preds = %5
  %11 = load ptr, ptr %2, align 8, !tbaa !76
  %12 = load i32, ptr %4, align 4, !tbaa !29
  %13 = call ptr @Vec_VecEntry(ptr noundef %11, i32 noundef %12)
  store ptr %13, ptr %3, align 8, !tbaa !43
  br label %14

14:                                               ; preds = %10, %5
  %15 = phi i1 [ false, %5 ], [ true, %10 ]
  br i1 %15, label %16, label %25

16:                                               ; preds = %14
  %17 = load ptr, ptr %3, align 8, !tbaa !43
  %18 = icmp ne ptr %17, null
  br i1 %18, label %19, label %21

19:                                               ; preds = %16
  %20 = load ptr, ptr %3, align 8, !tbaa !43
  call void @Vec_PtrFree(ptr noundef %20)
  br label %21

21:                                               ; preds = %19, %16
  br label %22

22:                                               ; preds = %21
  %23 = load i32, ptr %4, align 4, !tbaa !29
  %24 = add nsw i32 %23, 1
  store i32 %24, ptr %4, align 4, !tbaa !29
  br label %5, !llvm.loop !77

25:                                               ; preds = %14
  %26 = load ptr, ptr %2, align 8, !tbaa !76
  call void @Vec_PtrFree(ptr noundef %26)
  call void @llvm.lifetime.end.p0(i64 4, ptr %4) #8
  call void @llvm.lifetime.end.p0(i64 8, ptr %3) #8
  ret void
}

; Function Attrs: inlinehint nounwind uwtable
define internal void @Vec_IntFree(ptr noundef %0) #4 {
  %2 = alloca ptr, align 8
  store ptr %0, ptr %2, align 8, !tbaa !30
  %3 = load ptr, ptr %2, align 8, !tbaa !30
  %4 = getelementptr inbounds nuw %struct.Vec_Int_t_, ptr %3, i32 0, i32 2
  %5 = load ptr, ptr %4, align 8, !tbaa !54
  %6 = icmp ne ptr %5, null
  br i1 %6, label %7, label %13

7:                                                ; preds = %1
  %8 = load ptr, ptr %2, align 8, !tbaa !30
  %9 = getelementptr inbounds nuw %struct.Vec_Int_t_, ptr %8, i32 0, i32 2
  %10 = load ptr, ptr %9, align 8, !tbaa !54
  call void @free(ptr noundef %10) #8
  %11 = load ptr, ptr %2, align 8, !tbaa !30
  %12 = getelementptr inbounds nuw %struct.Vec_Int_t_, ptr %11, i32 0, i32 2
  store ptr null, ptr %12, align 8, !tbaa !54
  br label %14

13:                                               ; preds = %1
  br label %14

14:                                               ; preds = %13, %7
  %15 = load ptr, ptr %2, align 8, !tbaa !30
  %16 = icmp ne ptr %15, null
  br i1 %16, label %17, label %19

17:                                               ; preds = %14
  %18 = load ptr, ptr %2, align 8, !tbaa !30
  call void @free(ptr noundef %18) #8
  store ptr null, ptr %2, align 8, !tbaa !30
  br label %20

19:                                               ; preds = %14
  br label %20

20:                                               ; preds = %19, %17
  ret void
}

; Function Attrs: nounwind uwtable
define void @Lpk_ManStop(ptr noundef %0) #0 {
  %2 = alloca ptr, align 8
  %3 = alloca i32, align 4
  %4 = alloca ptr, align 8
  store ptr %0, ptr %2, align 8, !tbaa !8
  call void @llvm.lifetime.start.p0(i64 4, ptr %3) #8
  %5 = load ptr, ptr %2, align 8, !tbaa !8
  %6 = getelementptr inbounds nuw %struct.Lpk_Man_t_, ptr %5, i32 0, i32 26
  %7 = getelementptr inbounds [5 x [16 x ptr]], ptr %6, i64 0, i64 0
  %8 = getelementptr inbounds [16 x ptr], ptr %7, i64 0, i64 0
  %9 = load ptr, ptr %8, align 8, !tbaa !37
  %10 = icmp ne ptr %9, null
  br i1 %10, label %11, label %21

11:                                               ; preds = %1
  %12 = load ptr, ptr %2, align 8, !tbaa !8
  %13 = getelementptr inbounds nuw %struct.Lpk_Man_t_, ptr %12, i32 0, i32 26
  %14 = getelementptr inbounds [5 x [16 x ptr]], ptr %13, i64 0, i64 0
  %15 = getelementptr inbounds [16 x ptr], ptr %14, i64 0, i64 0
  %16 = load ptr, ptr %15, align 8, !tbaa !37
  call void @free(ptr noundef %16) #8
  %17 = load ptr, ptr %2, align 8, !tbaa !8
  %18 = getelementptr inbounds nuw %struct.Lpk_Man_t_, ptr %17, i32 0, i32 26
  %19 = getelementptr inbounds [5 x [16 x ptr]], ptr %18, i64 0, i64 0
  %20 = getelementptr inbounds [16 x ptr], ptr %19, i64 0, i64 0
  store ptr null, ptr %20, align 8, !tbaa !37
  br label %22

21:                                               ; preds = %1
  br label %22

22:                                               ; preds = %21, %11
  %23 = load ptr, ptr %2, align 8, !tbaa !8
  %24 = getelementptr inbounds nuw %struct.Lpk_Man_t_, ptr %23, i32 0, i32 23
  %25 = load ptr, ptr %24, align 8, !tbaa !35
  call void @Vec_IntFree(ptr noundef %25)
  %26 = load ptr, ptr %2, align 8, !tbaa !8
  %27 = getelementptr inbounds nuw %struct.Lpk_Man_t_, ptr %26, i32 0, i32 24
  %28 = load ptr, ptr %27, align 8, !tbaa !36
  call void @Vec_IntFree(ptr noundef %28)
  %29 = load ptr, ptr %2, align 8, !tbaa !8
  %30 = getelementptr inbounds nuw %struct.Lpk_Man_t_, ptr %29, i32 0, i32 22
  %31 = load ptr, ptr %30, align 8, !tbaa !34
  call void @Vec_IntFree(ptr noundef %31)
  %32 = load ptr, ptr %2, align 8, !tbaa !8
  %33 = getelementptr inbounds nuw %struct.Lpk_Man_t_, ptr %32, i32 0, i32 28
  %34 = load ptr, ptr %33, align 8, !tbaa !33
  call void @Kit_DsdManFree(ptr noundef %34)
  store i32 0, ptr %3, align 4, !tbaa !29
  br label %35

35:                                               ; preds = %45, %22
  %36 = load i32, ptr %3, align 4, !tbaa !29
  %37 = icmp slt i32 %36, 8
  br i1 %37, label %38, label %48

38:                                               ; preds = %35
  %39 = load ptr, ptr %2, align 8, !tbaa !8
  %40 = getelementptr inbounds nuw %struct.Lpk_Man_t_, ptr %39, i32 0, i32 27
  %41 = load i32, ptr %3, align 4, !tbaa !29
  %42 = sext i32 %41 to i64
  %43 = getelementptr inbounds [8 x ptr], ptr %40, i64 0, i64 %42
  %44 = load ptr, ptr %43, align 8, !tbaa !30
  call void @Vec_IntFree(ptr noundef %44)
  br label %45

45:                                               ; preds = %38
  %46 = load i32, ptr %3, align 4, !tbaa !29
  %47 = add nsw i32 %46, 1
  store i32 %47, ptr %3, align 4, !tbaa !29
  br label %35, !llvm.loop !57

48:                                               ; preds = %35
  %49 = load ptr, ptr %2, align 8, !tbaa !8
  %50 = getelementptr inbounds nuw %struct.Lpk_Man_t_, ptr %49, i32 0, i32 10
  %51 = load ptr, ptr %50, align 8, !tbaa !58
  %52 = icmp ne ptr %51, null
  br i1 %52, label %53, label %68

53:                                               ; preds = %48
  call void @llvm.lifetime.start.p0(i64 8, ptr %4) #8
  %54 = load ptr, ptr %2, align 8, !tbaa !8
  %55 = getelementptr inbounds nuw %struct.Lpk_Man_t_, ptr %54, i32 0, i32 10
  %56 = load ptr, ptr %55, align 8, !tbaa !58
  %57 = getelementptr inbounds nuw %struct.If_Man_t_, ptr %56, i32 0, i32 1
  %58 = load ptr, ptr %57, align 8, !tbaa !59
  store ptr %58, ptr %4, align 8, !tbaa !46
  %59 = load ptr, ptr %2, align 8, !tbaa !8
  %60 = getelementptr inbounds nuw %struct.Lpk_Man_t_, ptr %59, i32 0, i32 10
  %61 = load ptr, ptr %60, align 8, !tbaa !58
  call void @If_ManStop(ptr noundef %61)
  %62 = load ptr, ptr %4, align 8, !tbaa !46
  %63 = icmp ne ptr %62, null
  br i1 %63, label %64, label %66

64:                                               ; preds = %53
  %65 = load ptr, ptr %4, align 8, !tbaa !46
  call void @free(ptr noundef %65) #8
  store ptr null, ptr %4, align 8, !tbaa !46
  br label %67

66:                                               ; preds = %53
  br label %67

67:                                               ; preds = %66, %64
  call void @llvm.lifetime.end.p0(i64 8, ptr %4) #8
  br label %68

68:                                               ; preds = %67, %48
  %69 = load ptr, ptr %2, align 8, !tbaa !8
  %70 = getelementptr inbounds nuw %struct.Lpk_Man_t_, ptr %69, i32 0, i32 12
  %71 = load ptr, ptr %70, align 8, !tbaa !74
  %72 = icmp ne ptr %71, null
  br i1 %72, label %73, label %77

73:                                               ; preds = %68
  %74 = load ptr, ptr %2, align 8, !tbaa !8
  %75 = getelementptr inbounds nuw %struct.Lpk_Man_t_, ptr %74, i32 0, i32 12
  %76 = load ptr, ptr %75, align 8, !tbaa !74
  call void @Vec_VecFree(ptr noundef %76)
  br label %77

77:                                               ; preds = %73, %68
  %78 = load ptr, ptr %2, align 8, !tbaa !8
  %79 = getelementptr inbounds nuw %struct.Lpk_Man_t_, ptr %78, i32 0, i32 9
  %80 = load ptr, ptr %79, align 8, !tbaa !75
  %81 = icmp ne ptr %80, null
  br i1 %81, label %82, label %86

82:                                               ; preds = %77
  %83 = load ptr, ptr %2, align 8, !tbaa !8
  %84 = getelementptr inbounds nuw %struct.Lpk_Man_t_, ptr %83, i32 0, i32 9
  %85 = load ptr, ptr %84, align 8, !tbaa !75
  call void @Vec_VecFree(ptr noundef %85)
  br label %86

86:                                               ; preds = %82, %77
  %87 = load ptr, ptr %2, align 8, !tbaa !8
  %88 = getelementptr inbounds nuw %struct.Lpk_Man_t_, ptr %87, i32 0, i32 18
  %89 = load ptr, ptr %88, align 8, !tbaa !27
  call void @Vec_PtrFree(ptr noundef %89)
  %90 = load ptr, ptr %2, align 8, !tbaa !8
  %91 = getelementptr inbounds nuw %struct.Lpk_Man_t_, ptr %90, i32 0, i32 19
  %92 = load ptr, ptr %91, align 8, !tbaa !28
  call void @Vec_PtrFree(ptr noundef %92)
  %93 = load ptr, ptr %2, align 8, !tbaa !8
  %94 = getelementptr inbounds nuw %struct.Lpk_Man_t_, ptr %93, i32 0, i32 11
  %95 = load ptr, ptr %94, align 8, !tbaa !26
  call void @Vec_IntFree(ptr noundef %95)
  %96 = load ptr, ptr %2, align 8, !tbaa !8
  %97 = getelementptr inbounds nuw %struct.Lpk_Man_t_, ptr %96, i32 0, i32 20
  %98 = load ptr, ptr %97, align 8, !tbaa !24
  call void @Vec_PtrFree(ptr noundef %98)
  %99 = load ptr, ptr %2, align 8, !tbaa !8
  %100 = getelementptr inbounds nuw %struct.Lpk_Man_t_, ptr %99, i32 0, i32 21
  %101 = load ptr, ptr %100, align 8, !tbaa !25
  call void @Vec_PtrFree(ptr noundef %101)
  %102 = load ptr, ptr %2, align 8, !tbaa !8
  %103 = icmp ne ptr %102, null
  br i1 %103, label %104, label %106

104:                                              ; preds = %86
  %105 = load ptr, ptr %2, align 8, !tbaa !8
  call void @free(ptr noundef %105) #8
  store ptr null, ptr %2, align 8, !tbaa !8
  br label %107

106:                                              ; preds = %86
  br label %107

107:                                              ; preds = %106, %104
  call void @llvm.lifetime.end.p0(i64 4, ptr %3) #8
  ret void
}