; Function Attrs: nounwind uwtable
define void @Lpk_ManStop(ptr noundef captures(none) %0) local_unnamed_addr #0 {
  %2 = getelementptr inbounds nuw i8, ptr %0, i64 8241072
  %3 = load ptr, ptr %2, align 8, !tbaa !48
  %.not = icmp eq ptr %3, null
  br i1 %.not, label %5, label %4

4:                                                ; preds = %1
  tail call void @free(ptr noundef nonnull %3) #6
  store ptr null, ptr %2, align 8, !tbaa !48
  br label %5

5:                                                ; preds = %1, %4
  %6 = getelementptr inbounds nuw i8, ptr %0, i64 8240928
  %7 = load ptr, ptr %6, align 8, !tbaa !46
  %8 = getelementptr inbounds nuw i8, ptr %7, i64 8
  %9 = load ptr, ptr %8, align 8, !tbaa !38
  %.not.i = icmp eq ptr %9, null
  br i1 %.not.i, label %Vec_IntFree.exit, label %10

10:                                               ; preds = %5
  tail call void @free(ptr noundef nonnull %9) #6
  br label %Vec_IntFree.exit

Vec_IntFree.exit:                                 ; preds = %5, %10
  tail call void @free(ptr noundef nonnull %7) #6
  %11 = getelementptr inbounds nuw i8, ptr %0, i64 8240936
  %12 = load ptr, ptr %11, align 8, !tbaa !47
  %13 = getelementptr inbounds nuw i8, ptr %12, i64 8
  %14 = load ptr, ptr %13, align 8, !tbaa !38
  %.not.i37 = icmp eq ptr %14, null
  br i1 %.not.i37, label %Vec_IntFree.exit38, label %15

15:                                               ; preds = %Vec_IntFree.exit
  tail call void @free(ptr noundef nonnull %14) #6
  br label %Vec_IntFree.exit38

Vec_IntFree.exit38:                               ; preds = %Vec_IntFree.exit, %15
  tail call void @free(ptr noundef nonnull %12) #6
  %16 = getelementptr inbounds nuw i8, ptr %0, i64 8240920
  %17 = load ptr, ptr %16, align 8, !tbaa !45
  %18 = getelementptr inbounds nuw i8, ptr %17, i64 8
  %19 = load ptr, ptr %18, align 8, !tbaa !38
  %.not.i39 = icmp eq ptr %19, null
  br i1 %.not.i39, label %Vec_IntFree.exit40, label %20

20:                                               ; preds = %Vec_IntFree.exit38
  tail call void @free(ptr noundef nonnull %19) #6
  br label %Vec_IntFree.exit40

Vec_IntFree.exit40:                               ; preds = %Vec_IntFree.exit38, %20
  tail call void @free(ptr noundef nonnull %17) #6
  %21 = getelementptr inbounds nuw i8, ptr %0, i64 8241776
  %22 = load ptr, ptr %21, align 8, !tbaa !44
  tail call void @Kit_DsdManFree(ptr noundef %22) #6
  %23 = getelementptr inbounds nuw i8, ptr %0, i64 8241712
  br label %24

24:                                               ; preds = %Vec_IntFree.exit40, %Vec_IntFree.exit42
  %indvars.iv = phi i64 [ 0, %Vec_IntFree.exit40 ], [ %indvars.iv.next, %Vec_IntFree.exit42 ]
  %25 = getelementptr inbounds nuw [8 x ptr], ptr %23, i64 0, i64 %indvars.iv
  %26 = load ptr, ptr %25, align 8, !tbaa !42
  %27 = getelementptr inbounds nuw i8, ptr %26, i64 8
  %28 = load ptr, ptr %27, align 8, !tbaa !38
  %.not.i41 = icmp eq ptr %28, null
  br i1 %.not.i41, label %Vec_IntFree.exit42, label %29

29:                                               ; preds = %24
  tail call void @free(ptr noundef nonnull %28) #6
  br label %Vec_IntFree.exit42

Vec_IntFree.exit42:                               ; preds = %24, %29
  tail call void @free(ptr noundef nonnull %26) #6
  %indvars.iv.next = add nuw nsw i64 %indvars.iv, 1
  %exitcond.not = icmp eq i64 %indvars.iv.next, 8
  br i1 %exitcond.not, label %30, label %24, !llvm.loop !52

30:                                               ; preds = %Vec_IntFree.exit42
  %31 = getelementptr inbounds nuw i8, ptr %0, i64 8240048
  %32 = load ptr, ptr %31, align 8, !tbaa !53
  %.not32 = icmp eq ptr %32, null
  br i1 %.not32, label %37, label %33

33:                                               ; preds = %30
  %34 = getelementptr inbounds nuw i8, ptr %32, i64 8
  %35 = load ptr, ptr %34, align 8, !tbaa !54
  tail call void @If_ManStop(ptr noundef nonnull %32) #6
  %.not33 = icmp eq ptr %35, null
  br i1 %.not33, label %37, label %36

36:                                               ; preds = %33
  tail call void @free(ptr noundef nonnull %35) #6
  br label %37

37:                                               ; preds = %36, %33, %30
  %38 = getelementptr inbounds nuw i8, ptr %0, i64 8240064
  %39 = load ptr, ptr %38, align 8, !tbaa !69
  %.not34 = icmp eq ptr %39, null
  br i1 %.not34, label %57, label %40

40:                                               ; preds = %37
  %41 = getelementptr i8, ptr %39, i64 4
  %.val11.i = load i32, ptr %41, align 4, !tbaa !70
  %42 = icmp sgt i32 %.val11.i, 0
  br i1 %42, label %.lr.ph.i, label %.critedge.i

.lr.ph.i:                                         ; preds = %40
  %43 = getelementptr i8, ptr %39, i64 8
  br label %44

44:                                               ; preds = %51, %.lr.ph.i
  %.val14.i = phi i32 [ %.val11.i, %.lr.ph.i ], [ %.val.i, %51 ]
  %indvars.iv.i = phi i64 [ 0, %.lr.ph.i ], [ %indvars.iv.next.i, %51 ]
  %.val8.i = load ptr, ptr %43, align 8, !tbaa !72
  %45 = getelementptr inbounds nuw ptr, ptr %.val8.i, i64 %indvars.iv.i
  %46 = load ptr, ptr %45, align 8, !tbaa !21
  %.not.i43 = icmp eq ptr %46, null
  br i1 %.not.i43, label %51, label %47

47:                                               ; preds = %44
  %48 = getelementptr inbounds nuw i8, ptr %46, i64 8
  %49 = load ptr, ptr %48, align 8, !tbaa !27
  %.not.i.i = icmp eq ptr %49, null
  br i1 %.not.i.i, label %Vec_PtrFree.exit.i, label %50

50:                                               ; preds = %47
  tail call void @free(ptr noundef nonnull %49) #6
  br label %Vec_PtrFree.exit.i

Vec_PtrFree.exit.i:                               ; preds = %50, %47
  tail call void @free(ptr noundef nonnull %46) #6
  %.val.pre.i = load i32, ptr %41, align 4, !tbaa !70
  br label %51

51:                                               ; preds = %Vec_PtrFree.exit.i, %44
  %.val.i = phi i32 [ %.val14.i, %44 ], [ %.val.pre.i, %Vec_PtrFree.exit.i ]
  %indvars.iv.next.i = add nuw nsw i64 %indvars.iv.i, 1
  %52 = sext i32 %.val.i to i64
  %53 = icmp slt i64 %indvars.iv.next.i, %52
  br i1 %53, label %44, label %.critedge.i, !llvm.loop !73

.critedge.i:                                      ; preds = %51, %40
  %54 = getelementptr inbounds nuw i8, ptr %39, i64 8
  %55 = load ptr, ptr %54, align 8, !tbaa !27
  %.not.i9.i = icmp eq ptr %55, null
  br i1 %.not.i9.i, label %Vec_VecFree.exit, label %56

56:                                               ; preds = %.critedge.i
  tail call void @free(ptr noundef nonnull %55) #6
  br label %Vec_VecFree.exit

Vec_VecFree.exit:                                 ; preds = %.critedge.i, %56
  tail call void @free(ptr noundef nonnull %39) #6
  br label %57

57:                                               ; preds = %Vec_VecFree.exit, %37
  %58 = getelementptr inbounds nuw i8, ptr %0, i64 8240040
  %59 = load ptr, ptr %58, align 8, !tbaa !74
  %.not35 = icmp eq ptr %59, null
  br i1 %.not35, label %77, label %60

60:                                               ; preds = %57
  %61 = getelementptr i8, ptr %59, i64 4
  %.val11.i44 = load i32, ptr %61, align 4, !tbaa !70
  %62 = icmp sgt i32 %.val11.i44, 0
  br i1 %62, label %.lr.ph.i47, label %.critedge.i45

.lr.ph.i47:                                       ; preds = %60
  %63 = getelementptr i8, ptr %59, i64 8
  br label %64

64:                                               ; preds = %71, %.lr.ph.i47
  %.val14.i48 = phi i32 [ %.val11.i44, %.lr.ph.i47 ], [ %.val.i55, %71 ]
  %indvars.iv.i49 = phi i64 [ 0, %.lr.ph.i47 ], [ %indvars.iv.next.i56, %71 ]
  %.val8.i50 = load ptr, ptr %63, align 8, !tbaa !72
  %65 = getelementptr inbounds nuw ptr, ptr %.val8.i50, i64 %indvars.iv.i49
  %66 = load ptr, ptr %65, align 8, !tbaa !21
  %.not.i51 = icmp eq ptr %66, null
  br i1 %.not.i51, label %71, label %67

67:                                               ; preds = %64
  %68 = getelementptr inbounds nuw i8, ptr %66, i64 8
  %69 = load ptr, ptr %68, align 8, !tbaa !27
  %.not.i.i52 = icmp eq ptr %69, null
  br i1 %.not.i.i52, label %Vec_PtrFree.exit.i53, label %70

70:                                               ; preds = %67
  tail call void @free(ptr noundef nonnull %69) #6
  br label %Vec_PtrFree.exit.i53

Vec_PtrFree.exit.i53:                             ; preds = %70, %67
  tail call void @free(ptr noundef nonnull %66) #6
  %.val.pre.i54 = load i32, ptr %61, align 4, !tbaa !70
  br label %71

71:                                               ; preds = %Vec_PtrFree.exit.i53, %64
  %.val.i55 = phi i32 [ %.val14.i48, %64 ], [ %.val.pre.i54, %Vec_PtrFree.exit.i53 ]
  %indvars.iv.next.i56 = add nuw nsw i64 %indvars.iv.i49, 1
  %72 = sext i32 %.val.i55 to i64
  %73 = icmp slt i64 %indvars.iv.next.i56, %72
  br i1 %73, label %64, label %.critedge.i45, !llvm.loop !73

.critedge.i45:                                    ; preds = %71, %60
  %74 = getelementptr inbounds nuw i8, ptr %59, i64 8
  %75 = load ptr, ptr %74, align 8, !tbaa !27
  %.not.i9.i46 = icmp eq ptr %75, null
  br i1 %.not.i9.i46, label %Vec_VecFree.exit57, label %76

76:                                               ; preds = %.critedge.i45
  tail call void @free(ptr noundef nonnull %75) #6
  br label %Vec_VecFree.exit57

Vec_VecFree.exit57:                               ; preds = %.critedge.i45, %76
  tail call void @free(ptr noundef nonnull %59) #6
  br label %77

77:                                               ; preds = %Vec_VecFree.exit57, %57
  %78 = getelementptr inbounds nuw i8, ptr %0, i64 8240888
  %79 = load ptr, ptr %78, align 8, !tbaa !40
  %80 = getelementptr inbounds nuw i8, ptr %79, i64 8
  %81 = load ptr, ptr %80, align 8, !tbaa !27
  %.not.i58 = icmp eq ptr %81, null
  br i1 %.not.i58, label %Vec_PtrFree.exit, label %82

82:                                               ; preds = %77
  tail call void @free(ptr noundef nonnull %81) #6
  br label %Vec_PtrFree.exit

Vec_PtrFree.exit:                                 ; preds = %77, %82
  tail call void @free(ptr noundef nonnull %79) #6
  %83 = getelementptr inbounds nuw i8, ptr %0, i64 8240896
  %84 = load ptr, ptr %83, align 8, !tbaa !41
  %85 = getelementptr inbounds nuw i8, ptr %84, i64 8
  %86 = load ptr, ptr %85, align 8, !tbaa !27
  %.not.i59 = icmp eq ptr %86, null
  br i1 %.not.i59, label %Vec_PtrFree.exit60, label %87

87:                                               ; preds = %Vec_PtrFree.exit
  tail call void @free(ptr noundef nonnull %86) #6
  br label %Vec_PtrFree.exit60

Vec_PtrFree.exit60:                               ; preds = %Vec_PtrFree.exit, %87
  tail call void @free(ptr noundef nonnull %84) #6
  %88 = getelementptr inbounds nuw i8, ptr %0, i64 8240056
  %89 = load ptr, ptr %88, align 8, !tbaa !39
  %90 = getelementptr inbounds nuw i8, ptr %89, i64 8
  %91 = load ptr, ptr %90, align 8, !tbaa !38
  %.not.i61 = icmp eq ptr %91, null
  br i1 %.not.i61, label %Vec_IntFree.exit62, label %92

92:                                               ; preds = %Vec_PtrFree.exit60
  tail call void @free(ptr noundef nonnull %91) #6
  br label %Vec_IntFree.exit62

Vec_IntFree.exit62:                               ; preds = %Vec_PtrFree.exit60, %92
  tail call void @free(ptr noundef nonnull %89) #6
  %93 = getelementptr inbounds nuw i8, ptr %0, i64 8240904
  %94 = load ptr, ptr %93, align 8, !tbaa !32
  %95 = getelementptr inbounds nuw i8, ptr %94, i64 8
  %96 = load ptr, ptr %95, align 8, !tbaa !27
  %.not.i63 = icmp eq ptr %96, null
  br i1 %.not.i63, label %Vec_PtrFree.exit64, label %97

97:                                               ; preds = %Vec_IntFree.exit62
  tail call void @free(ptr noundef nonnull %96) #6
  br label %Vec_PtrFree.exit64

Vec_PtrFree.exit64:                               ; preds = %Vec_IntFree.exit62, %97
  tail call void @free(ptr noundef nonnull %94) #6
  %98 = getelementptr inbounds nuw i8, ptr %0, i64 8240912
  %99 = load ptr, ptr %98, align 8, !tbaa !33
  %100 = getelementptr inbounds nuw i8, ptr %99, i64 8
  %101 = load ptr, ptr %100, align 8, !tbaa !27
  %.not.i65 = icmp eq ptr %101, null
  br i1 %.not.i65, label %103, label %102

102:                                              ; preds = %Vec_PtrFree.exit64
  tail call void @free(ptr noundef nonnull %101) #6
  br label %103

103:                                              ; preds = %Vec_PtrFree.exit64, %102
  tail call void @free(ptr noundef nonnull %99) #6
  tail call void @free(ptr noundef nonnull %0) #6
  ret void
}